target datalayout = "e-m:e-p270:32:32-p271:32:32-p272:64:64-i64:64-i128:128-f80:128-n8:16:32:64-S128"
target triple = "x86_64-pc-linux-gnu"

@.str.13 = private unnamed_addr constant [36 x i8] c"Java Kernel does not support JVMTI.\00", align 1

; Function Attrs: mustprogress nounwind uwtable
define hidden void @_ZN11JvmtiExport18report_unsupportedEb(i1 noundef zeroext %0) #1 align 2 {
  %2 = alloca i8, align 1
  %3 = zext i1 %0 to i8
  store i8 %3, ptr %2, align 1
  %4 = load i8, ptr %2, align 1
  %5 = trunc i8 %4 to i1
  br i1 %5, label %6, label %7

6:                                                ; preds = %1
  call void @_Z29vm_exit_during_initializationPKcS0_(ptr noundef @.str.13, ptr noundef null)
  br label %7

7:                                                ; preds = %6, %1
  ret void
}