; Function Attrs: mustprogress nounwind uwtable
define hidden void @_ZN11JvmtiExport18report_unsupportedEb(i1 noundef zeroext %0) local_unnamed_addr #1 align 2 {
  br i1 %0, label %2, label %3

2:                                                ; preds = %1
  tail call void @_Z29vm_exit_during_initializationPKcS0_(ptr noundef nonnull @.str.13, ptr noundef null) #19
  br label %3

3:                                                ; preds = %2, %1
  ret void
}